target datalayout = "e-m:e-p270:32:32-p271:32:32-p272:64:64-i64:64-i128:128-f80:128-n8:16:32:64-S128"
target triple = "x86_64-pc-linux-gnu"

@.str.31 = private unnamed_addr constant [10 x i8] c"(unknown)\00", align 1

; Function Attrs: nounwind uwtable
define hidden ptr @ASN1_tag2str(i32 noundef %0) #0 {
  %2 = alloca ptr, align 8
  %3 = alloca i32, align 4
  store i32 %0, ptr %3, align 4, !tbaa !15
  %4 = load i32, ptr %3, align 4, !tbaa !15
  %5 = icmp eq i32 %4, 258
  br i1 %5, label %9, label %6

6:                                                ; preds = %1
  %7 = load i32, ptr %3, align 4, !tbaa !15
  %8 = icmp eq i32 %7, 266
  br i1 %8, label %9, label %12

9:                                                ; preds = %6, %1
  %10 = load i32, ptr %3, align 4, !tbaa !15
  %11 = and i32 %10, -257
  store i32 %11, ptr %3, align 4, !tbaa !15
  br label %12

12:                                               ; preds = %9, %6
  %13 = load i32, ptr %3, align 4, !tbaa !15
  %14 = icmp slt i32 %13, 0
  br i1 %14, label %18, label %15

15:                                               ; preds = %12
  %16 = load i32, ptr %3, align 4, !tbaa !15
  %17 = icmp sgt i32 %16, 30
  br i1 %17, label %18, label %19

18:                                               ; preds = %15, %12
  store ptr @.str.31, ptr %2, align 8
  br label %24

19:                                               ; preds = %15
  %20 = load i32, ptr %3, align 4, !tbaa !15
  %21 = sext i32 %20 to i64
  %22 = getelementptr inbounds [31 x ptr], ptr @ASN1_tag2str.tag2str, i64 0, i64 %21
  %23 = load ptr, ptr %22, align 8, !tbaa !11
  store ptr %23, ptr %2, align 8
  br label %24

24:                                               ; preds = %19, %18
  %25 = load ptr, ptr %2, align 8
  ret ptr %25
}