; Function Attrs: mustprogress nofree norecurse nosync nounwind willreturn memory(none) uwtable
define hidden ptr @ASN1_tag2str(i32 noundef %0) local_unnamed_addr #1 {
  %2 = and i32 %0, -9
  %or.cond = icmp eq i32 %2, 258
  %3 = and i32 %0, 10
  %spec.select = select i1 %or.cond, i32 %3, i32 %0
  %or.cond3 = icmp ugt i32 %spec.select, 30
  br i1 %or.cond3, label %8, label %4

4:                                                ; preds = %1
  %5 = zext nneg i32 %spec.select to i64
  %6 = getelementptr inbounds nuw [31 x ptr], ptr @ASN1_tag2str.tag2str, i64 0, i64 %5
  %7 = load ptr, ptr %6, align 8, !tbaa !6
  br label %8

8:                                                ; preds = %1, %4
  %.09 = phi ptr [ %7, %4 ], [ @.str.31, %1 ]
  ret ptr %.09
}